; Function Attrs: nounwind uwtable
define void @png_write_chunk_data(ptr noalias noundef %0, ptr noundef %1, i64 noundef %2) local_unnamed_addr #1 {
  %4 = icmp ne ptr %0, null
  %5 = icmp ne ptr %1, null
  %or.cond = and i1 %4, %5
  %6 = icmp ne i64 %2, 0
  %or.cond3 = and i1 %or.cond, %6
  br i1 %or.cond3, label %7, label %8

7:                                                ; preds = %3
  tail call void @png_write_data(ptr noundef nonnull %0, ptr noundef nonnull %1, i64 noundef %2) #12
  tail call void @png_calculate_crc(ptr noundef nonnull %0, ptr noundef nonnull %1, i64 noundef %2) #12
  br label %8

8:                                                ; preds = %3, %7
  ret void
}